target datalayout = "e-m:e-p270:32:32-p271:32:32-p272:64:64-i64:64-i128:128-f80:128-n8:16:32:64-S128"
target triple = "x86_64-pc-linux-gnu"

%struct.arj_metadata_tag = type { ptr, i32, i32, i32, i32, i8, ptr, i64 }
%struct.cl_fmap = type { ptr, ptr, ptr, i64, i64, i64, i64, i8, i8, i8, i64, i64, i64, i64, ptr, ptr, ptr, ptr, ptr, ptr, ptr, i8, [16 x i8], i8, [20 x i8], i8, [32 x i8], ptr, ptr }

@.str.35 = private unnamed_addr constant [16 x i8] c"in arj_unstore\0A\00", align 1

; Function Attrs: inlinehint nounwind uwtable
define internal ptr @fmap_need_off_once(ptr noundef %0, i64 noundef %1, i64 noundef %2) #5 {
  %4 = alloca ptr, align 8
  %5 = alloca i64, align 8
  %6 = alloca i64, align 8
  store ptr %0, ptr %4, align 8, !tbaa !3
  store i64 %1, ptr %5, align 8, !tbaa !18
  store i64 %2, ptr %6, align 8, !tbaa !18
  %7 = load ptr, ptr %4, align 8, !tbaa !3
  %8 = getelementptr inbounds nuw %struct.cl_fmap, ptr %7, i32 0, i32 15
  %9 = load ptr, ptr %8, align 8, !tbaa !64
  %10 = load ptr, ptr %4, align 8, !tbaa !3
  %11 = load i64, ptr %5, align 8, !tbaa !18
  %12 = load i64, ptr %6, align 8, !tbaa !18
  %13 = call ptr %9(ptr noundef %10, i64 noundef %11, i64 noundef %12, i32 noundef 0)
  ret ptr %13
}

; Function Attrs: inlinehint nounwind uwtable
define internal ptr @fmap_need_off_once_len(ptr noundef %0, i64 noundef %1, i64 noundef %2, ptr noundef %3) #5 {
  %5 = alloca ptr, align 8
  %6 = alloca ptr, align 8
  %7 = alloca i64, align 8
  %8 = alloca i64, align 8
  %9 = alloca ptr, align 8
  %10 = alloca ptr, align 8
  %11 = alloca i32, align 4
  store ptr %0, ptr %6, align 8, !tbaa !3
  store i64 %1, ptr %7, align 8, !tbaa !18
  store i64 %2, ptr %8, align 8, !tbaa !18
  store ptr %3, ptr %9, align 8, !tbaa !67
  call void @llvm.lifetime.start.p0(i64 8, ptr %10) #8
  %12 = load i64, ptr %7, align 8, !tbaa !18
  %13 = load ptr, ptr %6, align 8, !tbaa !3
  %14 = getelementptr inbounds nuw %struct.cl_fmap, ptr %13, i32 0, i32 13
  %15 = load i64, ptr %14, align 8, !tbaa !21
  %16 = icmp uge i64 %12, %15
  br i1 %16, label %17, label %19

17:                                               ; preds = %4
  %18 = load ptr, ptr %9, align 8, !tbaa !67
  store i64 0, ptr %18, align 8, !tbaa !18
  store ptr null, ptr %5, align 8
  store i32 1, ptr %11, align 4
  br label %47

19:                                               ; preds = %4
  %20 = load i64, ptr %8, align 8, !tbaa !18
  %21 = load ptr, ptr %6, align 8, !tbaa !3
  %22 = getelementptr inbounds nuw %struct.cl_fmap, ptr %21, i32 0, i32 13
  %23 = load i64, ptr %22, align 8, !tbaa !21
  %24 = load i64, ptr %7, align 8, !tbaa !18
  %25 = sub i64 %23, %24
  %26 = icmp ugt i64 %20, %25
  br i1 %26, label %27, label %33

27:                                               ; preds = %19
  %28 = load ptr, ptr %6, align 8, !tbaa !3
  %29 = getelementptr inbounds nuw %struct.cl_fmap, ptr %28, i32 0, i32 13
  %30 = load i64, ptr %29, align 8, !tbaa !21
  %31 = load i64, ptr %7, align 8, !tbaa !18
  %32 = sub i64 %30, %31
  store i64 %32, ptr %8, align 8, !tbaa !18
  br label %33

33:                                               ; preds = %27, %19
  %34 = load ptr, ptr %6, align 8, !tbaa !3
  %35 = load i64, ptr %7, align 8, !tbaa !18
  %36 = load i64, ptr %8, align 8, !tbaa !18
  %37 = call ptr @fmap_need_off_once(ptr noundef %34, i64 noundef %35, i64 noundef %36)
  store ptr %37, ptr %10, align 8, !tbaa !65
  %38 = load ptr, ptr %10, align 8, !tbaa !65
  %39 = icmp ne ptr %38, null
  br i1 %39, label %40, label %42

40:                                               ; preds = %33
  %41 = load i64, ptr %8, align 8, !tbaa !18
  br label %43

42:                                               ; preds = %33
  br label %43

43:                                               ; preds = %42, %40
  %44 = phi i64 [ %41, %40 ], [ 0, %42 ]
  %45 = load ptr, ptr %9, align 8, !tbaa !67
  store i64 %44, ptr %45, align 8, !tbaa !18
  %46 = load ptr, ptr %10, align 8, !tbaa !65
  store ptr %46, ptr %5, align 8
  store i32 1, ptr %11, align 4
  br label %47

47:                                               ; preds = %43, %17
  call void @llvm.lifetime.end.p0(i64 8, ptr %10) #8
  %48 = load ptr, ptr %5, align 8
  ret ptr %48
}

; Function Attrs: nounwind uwtable
define internal i32 @arj_unstore(ptr noundef %0, i32 noundef %1, i32 noundef %2) #0 {
  %4 = alloca i32, align 4
  %5 = alloca ptr, align 8
  %6 = alloca i32, align 4
  %7 = alloca i32, align 4
  %8 = alloca ptr, align 8
  %9 = alloca i32, align 4
  %10 = alloca i32, align 4
  %11 = alloca i64, align 8
  %12 = alloca i32, align 4
  store ptr %0, ptr %5, align 8, !tbaa !10
  store i32 %1, ptr %6, align 4, !tbaa !17
  store i32 %2, ptr %7, align 4, !tbaa !17
  call void @llvm.lifetime.start.p0(i64 8, ptr %8) #8
  call void @llvm.lifetime.start.p0(i64 4, ptr %9) #8
  call void @llvm.lifetime.start.p0(i64 4, ptr %10) #8
  call void @llvm.lifetime.start.p0(i64 8, ptr %11) #8
  call void (ptr, ...) @cli_dbgmsg(ptr noundef @.str.35)
  %13 = load i32, ptr %7, align 4, !tbaa !17
  store i32 %13, ptr %9, align 4, !tbaa !17
  br label %14

14:                                               ; preds = %53, %3
  %15 = load i32, ptr %9, align 4, !tbaa !17
  %16 = icmp ugt i32 %15, 0
  br i1 %16, label %17, label %59

17:                                               ; preds = %14
  %18 = load i32, ptr %9, align 4, !tbaa !17
  %19 = icmp ult i32 8192, %18
  br i1 %19, label %20, label %21

20:                                               ; preds = %17
  br label %23

21:                                               ; preds = %17
  %22 = load i32, ptr %9, align 4, !tbaa !17
  br label %23

23:                                               ; preds = %21, %20
  %24 = phi i32 [ 8192, %20 ], [ %22, %21 ]
  store i32 %24, ptr %10, align 4, !tbaa !17
  %25 = load ptr, ptr %5, align 8, !tbaa !10
  %26 = getelementptr inbounds nuw %struct.arj_metadata_tag, ptr %25, i32 0, i32 6
  %27 = load ptr, ptr %26, align 8, !tbaa !12
  %28 = load ptr, ptr %5, align 8, !tbaa !10
  %29 = getelementptr inbounds nuw %struct.arj_metadata_tag, ptr %28, i32 0, i32 7
  %30 = load i64, ptr %29, align 8, !tbaa !16
  %31 = load i32, ptr %10, align 4, !tbaa !17
  %32 = zext i32 %31 to i64
  %33 = call ptr @fmap_need_off_once_len(ptr noundef %27, i64 noundef %30, i64 noundef %32, ptr noundef %11)
  store ptr %33, ptr %8, align 8, !tbaa !8
  %34 = load ptr, ptr %8, align 8, !tbaa !8
  %35 = icmp ne ptr %34, null
  br i1 %35, label %36, label %39

36:                                               ; preds = %23
  %37 = load i64, ptr %11, align 8, !tbaa !18
  %38 = icmp ne i64 %37, 0
  br i1 %38, label %40, label %39

39:                                               ; preds = %36, %23
  store i32 26, ptr %4, align 4
  store i32 1, ptr %12, align 4
  br label %60

40:                                               ; preds = %36
  %41 = load i64, ptr %11, align 8, !tbaa !18
  %42 = load ptr, ptr %5, align 8, !tbaa !10
  %43 = getelementptr inbounds nuw %struct.arj_metadata_tag, ptr %42, i32 0, i32 7
  %44 = load i64, ptr %43, align 8, !tbaa !16
  %45 = add i64 %44, %41
  store i64 %45, ptr %43, align 8, !tbaa !16
  %46 = load i32, ptr %6, align 4, !tbaa !17
  %47 = load ptr, ptr %8, align 8, !tbaa !8
  %48 = load i64, ptr %11, align 8, !tbaa !18
  %49 = call i64 @cli_writen(i32 noundef %46, ptr noundef %47, i64 noundef %48)
  %50 = load i64, ptr %11, align 8, !tbaa !18
  %51 = icmp ne i64 %49, %50
  br i1 %51, label %52, label %53

52:                                               ; preds = %40
  store i32 14, ptr %4, align 4
  store i32 1, ptr %12, align 4
  br label %60

53:                                               ; preds = %40
  %54 = load i64, ptr %11, align 8, !tbaa !18
  %55 = load i32, ptr %9, align 4, !tbaa !17
  %56 = zext i32 %55 to i64
  %57 = sub i64 %56, %54
  %58 = trunc i64 %57 to i32
  store i32 %58, ptr %9, align 4, !tbaa !17
  br label %14

59:                                               ; preds = %14
  store i32 0, ptr %4, align 4
  store i32 1, ptr %12, align 4
  br label %60

60:                                               ; preds = %59, %52, %39
  call void @llvm.lifetime.end.p0(i64 8, ptr %11) #8
  call void @llvm.lifetime.end.p0(i64 4, ptr %10) #8
  call void @llvm.lifetime.end.p0(i64 4, ptr %9) #8
  call void @llvm.lifetime.end.p0(i64 8, ptr %8) #8
  %61 = load i32, ptr %4, align 4
  ret i32 %61
}