; Function Attrs: nounwind uwtable
define internal fastcc range(i32 0, 27) i32 @arj_unstore(ptr noundef nonnull captures(none) %0, i32 noundef range(i32 0, -2147483648) %1, i32 noundef %2) unnamed_addr #0 {
  tail call void (ptr, ...) @cli_dbgmsg(ptr noundef nonnull @.str.35) #12
  %4 = getelementptr inbounds nuw i8, ptr %0, i64 32
  %.not23 = icmp eq i32 %2, 0
  br i1 %.not23, label %fmap_need_off_once_len.exit.thread, label %.lr.ph

.lr.ph:                                           ; preds = %3
  %5 = getelementptr inbounds nuw i8, ptr %0, i64 40
  br label %9

6:                                                ; preds = %20
  %7 = trunc nuw nsw i64 %spec.select.i to i32
  %8 = sub i32 %.01324, %7
  %.not = icmp eq i32 %8, 0
  br i1 %.not, label %fmap_need_off_once_len.exit.thread, label %9

9:                                                ; preds = %.lr.ph, %6
  %.01324 = phi i32 [ %2, %.lr.ph ], [ %8, %6 ]
  %10 = load ptr, ptr %4, align 8, !tbaa !3
  %11 = load i64, ptr %5, align 8, !tbaa !12
  %12 = getelementptr inbounds nuw i8, ptr %10, i64 88
  %13 = load i64, ptr %12, align 8, !tbaa !17
  %.not.i = icmp ult i64 %11, %13
  br i1 %.not.i, label %fmap_need_off_once_len.exit, label %fmap_need_off_once_len.exit.thread

fmap_need_off_once_len.exit:                      ; preds = %9
  %14 = tail call i32 @llvm.umin.i32(i32 %.01324, i32 8192)
  %15 = zext nneg i32 %14 to i64
  %16 = sub nuw i64 %13, %11
  %spec.select.i = tail call i64 @llvm.umin.i64(i64 range(i64 1, 4294967296) %15, i64 %16)
  %17 = getelementptr inbounds nuw i8, ptr %10, i64 104
  %18 = load ptr, ptr %17, align 8, !tbaa !13
  %19 = tail call ptr %18(ptr noundef nonnull %10, i64 noundef %11, i64 noundef range(i64 0, 4294967296) %spec.select.i, i32 noundef 0) #12
  %.not20.i.not = icmp eq ptr %19, null
  br i1 %.not20.i.not, label %fmap_need_off_once_len.exit.thread, label %20

20:                                               ; preds = %fmap_need_off_once_len.exit
  %21 = load i64, ptr %5, align 8, !tbaa !12
  %22 = add i64 %21, %spec.select.i
  store i64 %22, ptr %5, align 8, !tbaa !12
  %23 = tail call i64 @cli_writen(i32 noundef %1, ptr noundef nonnull %19, i64 noundef %spec.select.i) #12
  %.not17 = icmp eq i64 %23, %spec.select.i
  br i1 %.not17, label %6, label %fmap_need_off_once_len.exit.thread

fmap_need_off_once_len.exit.thread:               ; preds = %fmap_need_off_once_len.exit, %20, %6, %9, %3
  %.0 = phi i32 [ 0, %3 ], [ 26, %9 ], [ 0, %6 ], [ 14, %20 ], [ 26, %fmap_need_off_once_len.exit ]
  ret i32 %.0
}